	.section	.rodata
.LC0:
	.string	"%d\n"
	.text
	.globl	print
	.type	print, @function
print:
.LFB2:
	.cfi_startproc
	pushq	%rbp
	.cfi_def_cfa_offset 16
	.cfi_offset 6, -16
	movq	%rsp, %rbp
	.cfi_def_cfa_register 6
	subq	$16, %rsp
	movl	%edi, -4(%rbp)
	movl	-4(%rbp), %eax
	movl	%eax, %esi
	movl	$.LC0, %edi
	movl	$0, %eax
	call	printf
	movl	$0, %edi
	call	exit
	.cfi_endproc
.LFE2:
	.size	print, .-print
	.globl	main
	.type	main, @function
main:
.LFB3:
	.cfi_startproc
	pushq	%rbp
	.cfi_def_cfa_offset 16
	.cfi_offset 6, -16
	movq	%rsp, %rbp
	.cfi_def_cfa_register 6
	subq	$16, %rsp
//End template code
push $30
push $40
pop %rax
pop %rbx
add %rax, %rbx
push %rbx
//offset 1an
mov -20(%rbp), %rax
push %rax
//offset 1an
mov -20(%rbp), %rax
push %rax
pop %rax
pop %rbx
add %rax, %rbx
push %rbx
pop %rax
pop %rbx
push %rax
//Begin templates again Moves top stack to edi
	popq %rdi
	//Below auto
	call	print
	movl	$1, %eax
	leave
	.cfi_def_cfa 7, 8
	ret
	.cfi_endproc
.LFE3:
	.size	main, .-main
	.ident	"GCC: (Ubuntu 5.4.0-6ubuntu1~16.04.2) 5.4.0 20160609"
	.section	.note.GNU-stack,"",@progbits
